; Function Attrs: mustprogress nofree norecurse nosync nounwind willreturn memory(read, inaccessiblemem: none) uwtable
define hidden noundef i32 @_ZNK2lp10int_solver12column_countEv(ptr noundef nonnull readonly align 8 captures(none) dereferenceable(32) %0) local_unnamed_addr #9 align 2 {
  %2 = load ptr, ptr %0, align 8, !tbaa !43
  %3 = getelementptr inbounds nuw i8, ptr %2, i64 832
  %4 = getelementptr inbounds nuw i8, ptr %2, i64 840
  %5 = load ptr, ptr %4, align 8, !tbaa !242
  %6 = load ptr, ptr %3, align 8, !tbaa !243
  %7 = ptrtoint ptr %5 to i64
  %8 = ptrtoint ptr %6 to i64
  %9 = sub i64 %7, %8
  %10 = sdiv exact i64 %9, 24
  %11 = trunc i64 %10 to i32
  ret i32 %11
}